target datalayout = "e-m:e-p270:32:32-p271:32:32-p272:64:64-i64:64-i128:128-f80:128-n8:16:32:64-S128"
target triple = "x86_64-pc-linux-gnu"

%class.ScanTree = type { [1024 x ptr], i32, i32, ptr, i32, i8, i32, i32, i8, [2048 x i32], [2048 x i32], %class.StringList, %class.StringList, ptr, ptr, i8, i8, i64, [2048 x i32], ptr }
%class.StringList = type { %class.Array, i64, i64, [16 x i64], i64 }
%class.Array = type { ptr, i64, i64, i64 }
%struct.FindData = type <{ [2048 x i32], i64, i32, i8, i8, [2 x i8], %class.RarTime, %class.RarTime, %class.RarTime, i32, i8, [3 x i8] }>
%class.RarTime = type { i64 }

; Function Attrs: mustprogress nounwind uwtable
define linkonce_odr noundef i64 @_ZN10StringList10ItemsCountEv(ptr noundef nonnull align 8 dereferenceable(184) %0) #4 comdat align 2 {
  %2 = alloca ptr, align 8
  store ptr %0, ptr %2, align 8, !tbaa !8
  %3 = load ptr, ptr %2, align 8
  %4 = getelementptr inbounds nuw %class.StringList, ptr %3, i32 0, i32 2
  %5 = load i64, ptr %4, align 8, !tbaa !61
  ret i64 %5
}

; Function Attrs: mustprogress uwtable
define noundef i32 @_ZN8ScanTree7GetNextEP8FindData(ptr noundef nonnull align 8 dereferenceable(33216) %0, ptr noundef %1) #0 align 2 {
  %3 = alloca i32, align 4
  %4 = alloca ptr, align 8
  %5 = alloca ptr, align 8
  %6 = alloca i32, align 4
  %7 = alloca i32, align 4
  store ptr %0, ptr %4, align 8, !tbaa !3
  store ptr %1, ptr %5, align 8, !tbaa !45
  %8 = load ptr, ptr %4, align 8
  %9 = getelementptr inbounds nuw %class.ScanTree, ptr %8, i32 0, i32 1
  %10 = load i32, ptr %9, align 8, !tbaa !35
  %11 = icmp slt i32 %10, 0
  br i1 %11, label %12, label %13

12:                                               ; preds = %2
  store i32 1, ptr %3, align 4
  br label %78

13:                                               ; preds = %2
  call void @llvm.lifetime.start.p0(i64 4, ptr %6) #12
  br label %14

14:                                               ; preds = %72, %54, %48, %35, %28, %13
  br label %15

15:                                               ; preds = %14
  %16 = getelementptr inbounds nuw %class.ScanTree, ptr %8, i32 0, i32 9
  %17 = getelementptr inbounds [2048 x i32], ptr %16, i64 0, i64 0
  %18 = load i32, ptr %17, align 4, !tbaa !33
  %19 = icmp eq i32 %18, 0
  br i1 %19, label %20, label %23

20:                                               ; preds = %15
  %21 = call noundef zeroext i1 @_ZN8ScanTree11GetNextMaskEv(ptr noundef nonnull align 8 dereferenceable(33216) %8)
  br i1 %21, label %23, label %22

22:                                               ; preds = %20
  store i32 1, ptr %3, align 4
  store i32 1, ptr %7, align 4
  br label %77

23:                                               ; preds = %20, %15
  %24 = load ptr, ptr %5, align 8, !tbaa !45
  %25 = call noundef i32 @_ZN8ScanTree8FindProcEP8FindData(ptr noundef nonnull align 8 dereferenceable(33216) %8, ptr noundef %24)
  store i32 %25, ptr %6, align 4, !tbaa !47
  %26 = load i32, ptr %6, align 4, !tbaa !47
  %27 = icmp eq i32 %26, 2
  br i1 %27, label %28, label %32

28:                                               ; preds = %23
  %29 = getelementptr inbounds nuw %class.ScanTree, ptr %8, i32 0, i32 7
  %30 = load i32, ptr %29, align 4, !tbaa !36
  %31 = add nsw i32 %30, 1
  store i32 %31, ptr %29, align 4, !tbaa !36
  br label %14, !llvm.loop !49

32:                                               ; preds = %23
  %33 = load i32, ptr %6, align 4, !tbaa !47
  %34 = icmp eq i32 %33, 3
  br i1 %34, label %35, label %36

35:                                               ; preds = %32
  br label %14, !llvm.loop !49

36:                                               ; preds = %32
  %37 = load i32, ptr %6, align 4, !tbaa !47
  %38 = icmp eq i32 %37, 0
  br i1 %38, label %39, label %49

39:                                               ; preds = %36
  %40 = load ptr, ptr %5, align 8, !tbaa !45
  %41 = getelementptr inbounds nuw %struct.FindData, ptr %40, i32 0, i32 3
  %42 = load i8, ptr %41, align 4, !tbaa !50, !range !26, !noundef !27
  %43 = trunc i8 %42 to i1
  br i1 %43, label %44, label %49

44:                                               ; preds = %39
  %45 = getelementptr inbounds nuw %class.ScanTree, ptr %8, i32 0, i32 6
  %46 = load i32, ptr %45, align 8, !tbaa !29
  %47 = icmp eq i32 %46, 0
  br i1 %47, label %48, label %49

48:                                               ; preds = %44
  br label %14, !llvm.loop !49

49:                                               ; preds = %44, %39, %36
  %50 = load i32, ptr %6, align 4, !tbaa !47
  %51 = icmp eq i32 %50, 1
  br i1 %51, label %52, label %55

52:                                               ; preds = %49
  %53 = call noundef zeroext i1 @_ZN8ScanTree11GetNextMaskEv(ptr noundef nonnull align 8 dereferenceable(33216) %8)
  br i1 %53, label %54, label %55

54:                                               ; preds = %52
  br label %14, !llvm.loop !49

55:                                               ; preds = %52, %49
  %56 = getelementptr inbounds nuw %class.ScanTree, ptr %8, i32 0, i32 12
  %57 = call noundef i64 @_ZN10StringList10ItemsCountEv(ptr noundef nonnull align 8 dereferenceable(184) %56)
  %58 = icmp ugt i64 %57, 0
  br i1 %58, label %59, label %74

59:                                               ; preds = %55
  %60 = load i32, ptr %6, align 4, !tbaa !47
  %61 = icmp eq i32 %60, 0
  br i1 %61, label %62, label %74

62:                                               ; preds = %59
  %63 = getelementptr inbounds nuw %class.ScanTree, ptr %8, i32 0, i32 12
  %64 = load ptr, ptr %5, align 8, !tbaa !45
  %65 = getelementptr inbounds nuw %struct.FindData, ptr %64, i32 0, i32 3
  %66 = load i8, ptr %65, align 4, !tbaa !50, !range !26, !noundef !27
  %67 = trunc i8 %66 to i1
  %68 = load ptr, ptr %5, align 8, !tbaa !45
  %69 = getelementptr inbounds nuw %struct.FindData, ptr %68, i32 0, i32 0
  %70 = getelementptr inbounds [2048 x i32], ptr %69, i64 0, i64 0
  %71 = call noundef zeroext i1 @_ZN11CommandData9CheckArgsEP10StringListbPKwbi(ptr noundef %63, i1 noundef zeroext %67, ptr noundef %70, i1 noundef zeroext false, i32 noundef 6)
  br i1 %71, label %73, label %72

72:                                               ; preds = %62
  br label %14, !llvm.loop !49

73:                                               ; preds = %62
  br label %74

74:                                               ; preds = %73, %59, %55
  br label %75

75:                                               ; preds = %74
  %76 = load i32, ptr %6, align 4, !tbaa !47
  store i32 %76, ptr %3, align 4
  store i32 1, ptr %7, align 4
  br label %77

77:                                               ; preds = %75, %22
  call void @llvm.lifetime.end.p0(i64 4, ptr %6) #12
  br label %78

78:                                               ; preds = %77, %12
  %79 = load i32, ptr %3, align 4
  ret i32 %79
}