; Function Attrs: mustprogress uwtable
define noundef range(i32 0, 2) i32 @_ZN8ScanTree7GetNextEP8FindData(ptr noundef nonnull align 8 dereferenceable(33216) %0, ptr noundef %1) local_unnamed_addr #0 align 2 {
  %3 = getelementptr inbounds nuw i8, ptr %0, i64 8192
  %4 = load i32, ptr %3, align 8, !tbaa !28
  %5 = icmp slt i32 %4, 0
  br i1 %5, label %.thread16, label %.preheader

.preheader:                                       ; preds = %2
  %6 = getelementptr inbounds nuw i8, ptr %0, i64 8228
  %7 = getelementptr inbounds nuw i8, ptr %1, i64 8204
  %8 = getelementptr inbounds nuw i8, ptr %0, i64 8216
  %9 = getelementptr inbounds nuw i8, ptr %0, i64 24840
  %10 = getelementptr inbounds nuw i8, ptr %0, i64 24800
  %11 = getelementptr inbounds nuw i8, ptr %0, i64 8220
  br label %.backedge

.backedge:                                        ; preds = %.backedge.backedge, %.preheader
  %12 = load i32, ptr %6, align 4, !tbaa !23
  %13 = icmp eq i32 %12, 0
  br i1 %13, label %14, label %16

14:                                               ; preds = %.backedge
  %15 = tail call noundef zeroext i1 @_ZN8ScanTree11GetNextMaskEv(ptr noundef nonnull align 8 dereferenceable(33216) %0)
  br i1 %15, label %16, label %.thread16

16:                                               ; preds = %14, %.backedge
  %17 = tail call noundef i32 @_ZN8ScanTree8FindProcEP8FindData(ptr noundef nonnull align 8 dereferenceable(33216) %0, ptr noundef %1)
  switch i32 %17, label %default.unreachable [
    i32 2, label %18
    i32 3, label %.backedge.backedge
    i32 0, label %21
    i32 1, label %26
  ]

18:                                               ; preds = %16
  %19 = load i32, ptr %11, align 4, !tbaa !25
  %20 = add nsw i32 %19, 1
  store i32 %20, ptr %11, align 4, !tbaa !25
  br label %.backedge.backedge

.backedge.backedge:                               ; preds = %18, %26, %30, %21, %16
  br label %.backedge, !llvm.loop !33

21:                                               ; preds = %16
  %22 = load i8, ptr %7, align 4, !tbaa !34, !range !37, !noundef !38
  %23 = trunc nuw i8 %22 to i1
  %24 = load i32, ptr %8, align 8
  %25 = icmp eq i32 %24, 0
  %or.cond15 = select i1 %23, i1 %25, i1 false
  br i1 %or.cond15, label %.backedge.backedge, label %28

default.unreachable:                              ; preds = %16
  unreachable

26:                                               ; preds = %16
  %27 = tail call noundef zeroext i1 @_ZN8ScanTree11GetNextMaskEv(ptr noundef nonnull align 8 dereferenceable(33216) %0)
  br i1 %27, label %.backedge.backedge, label %.thread16

28:                                               ; preds = %21
  %29 = load i64, ptr %9, align 8, !tbaa !39
  %.not = icmp eq i64 %29, 0
  br i1 %.not, label %.thread16, label %30

30:                                               ; preds = %28
  %31 = tail call noundef zeroext i1 @_ZN11CommandData9CheckArgsEP10StringListbPKwbi(ptr noundef nonnull %10, i1 noundef zeroext %23, ptr noundef nonnull %1, i1 noundef zeroext false, i32 noundef 6)
  br i1 %31, label %.thread16, label %.backedge.backedge

.thread16:                                        ; preds = %26, %14, %28, %30, %2
  %.0 = phi i32 [ 1, %2 ], [ 1, %26 ], [ 0, %30 ], [ 0, %28 ], [ 1, %14 ]
  ret i32 %.0
}